target datalayout = "e-m:e-p270:32:32-p271:32:32-p272:64:64-i64:64-i128:128-f80:128-n8:16:32:64-S128"
target triple = "x86_64-pc-linux-gnu"

%"struct.std::atomic" = type { %"struct.std::__atomic_base" }
%"struct.std::__atomic_base" = type { i32 }
%"class.icu_77::UnifiedCache" = type { %"class.icu_77::UnifiedCacheBase", ptr, i32, i32, i32, i32, i32, i64, ptr }
%"class.icu_77::UnifiedCacheBase" = type { %"class.icu_77::UObject" }
%"class.icu_77::UObject" = type { ptr }
%"class.icu_77::SharedObject" = type { %"class.icu_77::UObject", i32, %"struct.std::atomic", ptr }
%"class.icu_77::CacheKeyBase" = type <{ %"class.icu_77::UObject", i32, i8, [3 x i8] }>

; Function Attrs: mustprogress nounwind uwtable
define void @_ZNK6icu_7712UnifiedCache16_registerPrimaryEPKNS_12CacheKeyBaseEPKNS_12SharedObjectE(ptr noundef nonnull align 8 dereferenceable(56) %0, ptr noundef %1, ptr noundef %2) #3 align 2 {
  %4 = alloca ptr, align 8
  %5 = alloca ptr, align 8
  %6 = alloca ptr, align 8
  store ptr %0, ptr %4, align 8, !tbaa !14
  store ptr %1, ptr %5, align 8, !tbaa !6
  store ptr %2, ptr %6, align 8, !tbaa !46
  %7 = load ptr, ptr %4, align 8
  %8 = load ptr, ptr %5, align 8, !tbaa !6
  %9 = getelementptr inbounds nuw %"class.icu_77::CacheKeyBase", ptr %8, i32 0, i32 2
  store i8 1, ptr %9, align 4, !tbaa !62
  %10 = load ptr, ptr %6, align 8, !tbaa !46
  %11 = getelementptr inbounds nuw %"class.icu_77::SharedObject", ptr %10, i32 0, i32 3
  store ptr %7, ptr %11, align 8, !tbaa !44
  %12 = getelementptr inbounds nuw %"class.icu_77::UnifiedCache", ptr %7, i32 0, i32 3
  %13 = load i32, ptr %12, align 4, !tbaa !35
  %14 = add nsw i32 %13, 1
  store i32 %14, ptr %12, align 4, !tbaa !35
  %15 = getelementptr inbounds nuw %"class.icu_77::UnifiedCache", ptr %7, i32 0, i32 4
  %16 = load i32, ptr %15, align 8, !tbaa !36
  %17 = add nsw i32 %16, 1
  store i32 %17, ptr %15, align 8, !tbaa !36
  ret void
}