; Function Attrs: mustprogress nofree norecurse nosync nounwind willreturn memory(argmem: readwrite) uwtable
define void @_ZNK6icu_7712UnifiedCache16_registerPrimaryEPKNS_12CacheKeyBaseEPKNS_12SharedObjectE(ptr noundef nonnull align 8 dereferenceable(56) %0, ptr noundef writeonly captures(none) initializes((12, 13)) %1, ptr noundef writeonly captures(none) initializes((16, 24)) %2) local_unnamed_addr #9 align 2 {
  %4 = getelementptr inbounds nuw i8, ptr %1, i64 12
  store i8 1, ptr %4, align 4, !tbaa !44
  %5 = getelementptr inbounds nuw i8, ptr %2, i64 16
  store ptr %0, ptr %5, align 8, !tbaa !37
  %6 = getelementptr inbounds nuw i8, ptr %0, i64 20
  %7 = load i32, ptr %6, align 4, !tbaa !29
  %8 = add nsw i32 %7, 1
  store i32 %8, ptr %6, align 4, !tbaa !29
  %9 = getelementptr inbounds nuw i8, ptr %0, i64 24
  %10 = load i32, ptr %9, align 8, !tbaa !30
  %11 = add nsw i32 %10, 1
  store i32 %11, ptr %9, align 8, !tbaa !30
  ret void
}